target datalayout = "e-m:e-p270:32:32-p271:32:32-p272:64:64-i64:64-i128:128-f80:128-n8:16:32:64-S128"
target triple = "x86_64-pc-linux-gnu"

%struct.evp_cipher_ctx_st = type { ptr, ptr, i32, i32, [16 x i8], [16 x i8], [32 x i8], i32, ptr, i32, i32, i64, ptr, i32, i32, [32 x i8], i64, ptr, ptr }
%struct.evp_cipher_st = type { i32, i32, i32, i32, i64, i32, ptr, ptr, ptr, i32, ptr, ptr, ptr, ptr, i32, ptr, ptr, ptr, %struct.CRYPTO_REF_COUNT, ptr, ptr, ptr, ptr, ptr, ptr, ptr, ptr, ptr, ptr, ptr, ptr, ptr, ptr, ptr, ptr, ptr, ptr, ptr, ptr }
%struct.CRYPTO_REF_COUNT = type { i32 }
%struct.ossl_param_st = type { ptr, i32, ptr, i64, i64 }

@.str = private unnamed_addr constant [32 x i8] c"../openssl/crypto/evp/evp_enc.c\00", align 1
@.str.3 = private unnamed_addr constant [7 x i8] c"keylen\00", align 1
@__func__.EVP_CIPHER_CTX_set_key_length = private unnamed_addr constant [30 x i8] c"EVP_CIPHER_CTX_set_key_length\00", align 1

; Function Attrs: nounwind uwtable
define ptr @EVP_CIPHER_settable_ctx_params(ptr noundef %0) #0 {
  %2 = alloca ptr, align 8
  %3 = alloca ptr, align 8
  %4 = alloca ptr, align 8
  %5 = alloca i32, align 4
  store ptr %0, ptr %3, align 8, !tbaa !27
  call void @llvm.lifetime.start.p0(i64 8, ptr %4) #9
  %6 = load ptr, ptr %3, align 8, !tbaa !27
  %7 = icmp ne ptr %6, null
  br i1 %7, label %8, label %22

8:                                                ; preds = %1
  %9 = load ptr, ptr %3, align 8, !tbaa !27
  %10 = getelementptr inbounds nuw %struct.evp_cipher_st, ptr %9, i32 0, i32 36
  %11 = load ptr, ptr %10, align 8, !tbaa !83
  %12 = icmp ne ptr %11, null
  br i1 %12, label %13, label %22

13:                                               ; preds = %8
  %14 = load ptr, ptr %3, align 8, !tbaa !27
  %15 = call ptr @EVP_CIPHER_get0_provider(ptr noundef %14)
  %16 = call ptr @ossl_provider_ctx(ptr noundef %15)
  store ptr %16, ptr %4, align 8, !tbaa !81
  %17 = load ptr, ptr %3, align 8, !tbaa !27
  %18 = getelementptr inbounds nuw %struct.evp_cipher_st, ptr %17, i32 0, i32 36
  %19 = load ptr, ptr %18, align 8, !tbaa !83
  %20 = load ptr, ptr %4, align 8, !tbaa !81
  %21 = call ptr %19(ptr noundef null, ptr noundef %20)
  store ptr %21, ptr %2, align 8
  store i32 1, ptr %5, align 4
  br label %23

22:                                               ; preds = %8, %1
  store ptr null, ptr %2, align 8
  store i32 1, ptr %5, align 4
  br label %23

23:                                               ; preds = %22, %13
  call void @llvm.lifetime.end.p0(i64 8, ptr %4) #9
  %24 = load ptr, ptr %2, align 8
  ret ptr %24
}

; Function Attrs: nounwind uwtable
define i32 @EVP_CIPHER_CTX_set_key_length(ptr noundef %0, i32 noundef %1) #0 {
  %3 = alloca i32, align 4
  %4 = alloca ptr, align 8
  %5 = alloca i32, align 4
  %6 = alloca i32, align 4
  %7 = alloca [2 x %struct.ossl_param_st], align 16
  %8 = alloca i64, align 8
  %9 = alloca i32, align 4
  %10 = alloca %struct.ossl_param_st, align 8
  store ptr %0, ptr %4, align 8, !tbaa !3
  store i32 %1, ptr %5, align 4, !tbaa !29
  %11 = load ptr, ptr %4, align 8, !tbaa !3
  %12 = getelementptr inbounds nuw %struct.evp_cipher_ctx_st, ptr %11, i32 0, i32 0
  %13 = load ptr, ptr %12, align 8, !tbaa !8
  %14 = getelementptr inbounds nuw %struct.evp_cipher_st, ptr %13, i32 0, i32 17
  %15 = load ptr, ptr %14, align 8, !tbaa !14
  %16 = icmp ne ptr %15, null
  br i1 %16, label %17, label %55

17:                                               ; preds = %2
  call void @llvm.lifetime.start.p0(i64 4, ptr %6) #9
  call void @llvm.lifetime.start.p0(i64 80, ptr %7) #9
  call void @llvm.memset.p0.i64(ptr align 16 %7, i8 0, i64 80, i1 false)
  call void @llvm.lifetime.start.p0(i64 8, ptr %8) #9
  %18 = load ptr, ptr %4, align 8, !tbaa !3
  %19 = call i32 @EVP_CIPHER_CTX_get_key_length(ptr noundef %18)
  %20 = load i32, ptr %5, align 4, !tbaa !29
  %21 = icmp eq i32 %19, %20
  br i1 %21, label %22, label %23

22:                                               ; preds = %17
  store i32 1, ptr %3, align 4
  store i32 1, ptr %9, align 4
  br label %54

23:                                               ; preds = %17
  %24 = load ptr, ptr %4, align 8, !tbaa !3
  %25 = getelementptr inbounds nuw %struct.evp_cipher_ctx_st, ptr %24, i32 0, i32 0
  %26 = load ptr, ptr %25, align 8, !tbaa !8
  %27 = call ptr @EVP_CIPHER_settable_ctx_params(ptr noundef %26)
  %28 = call ptr @OSSL_PARAM_locate_const(ptr noundef %27, ptr noundef @.str.3)
  %29 = icmp eq ptr %28, null
  br i1 %29, label %30, label %31

30:                                               ; preds = %23
  call void @ERR_new()
  call void @ERR_set_debug(ptr noundef @.str, i32 noundef 1366, ptr noundef @__func__.EVP_CIPHER_CTX_set_key_length)
  call void (i32, i32, ptr, ...) @ERR_set_error(i32 noundef 6, i32 noundef 130, ptr noundef null)
  store i32 0, ptr %3, align 4
  store i32 1, ptr %9, align 4
  br label %54

31:                                               ; preds = %23
  %32 = getelementptr inbounds [2 x %struct.ossl_param_st], ptr %7, i64 0, i64 0
  call void @llvm.lifetime.start.p0(i64 40, ptr %10) #9
  call void @OSSL_PARAM_construct_size_t(ptr dead_on_unwind writable sret(%struct.ossl_param_st) align 8 %10, ptr noundef @.str.3, ptr noundef %8)
  call void @llvm.memcpy.p0.p0.i64(ptr align 16 %32, ptr align 8 %10, i64 40, i1 false), !tbaa.struct !82
  call void @llvm.lifetime.end.p0(i64 40, ptr %10) #9
  %33 = getelementptr inbounds [2 x %struct.ossl_param_st], ptr %7, i64 0, i64 0
  %34 = load i32, ptr %5, align 4, !tbaa !29
  %35 = call i32 @OSSL_PARAM_set_int(ptr noundef %33, i32 noundef %34)
  %36 = icmp ne i32 %35, 0
  br i1 %36, label %38, label %37

37:                                               ; preds = %31
  store i32 0, ptr %3, align 4
  store i32 1, ptr %9, align 4
  br label %54

38:                                               ; preds = %31
  %39 = load ptr, ptr %4, align 8, !tbaa !3
  %40 = getelementptr inbounds nuw %struct.evp_cipher_ctx_st, ptr %39, i32 0, i32 0
  %41 = load ptr, ptr %40, align 8, !tbaa !8
  %42 = load ptr, ptr %4, align 8, !tbaa !3
  %43 = getelementptr inbounds nuw %struct.evp_cipher_ctx_st, ptr %42, i32 0, i32 17
  %44 = load ptr, ptr %43, align 8, !tbaa !19
  %45 = getelementptr inbounds [2 x %struct.ossl_param_st], ptr %7, i64 0, i64 0
  %46 = call i32 @evp_do_ciph_ctx_setparams(ptr noundef %41, ptr noundef %44, ptr noundef %45)
  store i32 %46, ptr %6, align 4, !tbaa !29
  %47 = load i32, ptr %6, align 4, !tbaa !29
  %48 = icmp sle i32 %47, 0
  br i1 %48, label %49, label %50

49:                                               ; preds = %38
  store i32 0, ptr %3, align 4
  store i32 1, ptr %9, align 4
  br label %54

50:                                               ; preds = %38
  %51 = load i32, ptr %5, align 4, !tbaa !29
  %52 = load ptr, ptr %4, align 8, !tbaa !3
  %53 = getelementptr inbounds nuw %struct.evp_cipher_ctx_st, ptr %52, i32 0, i32 9
  store i32 %51, ptr %53, align 8, !tbaa !53
  store i32 1, ptr %3, align 4
  store i32 1, ptr %9, align 4
  br label %54

54:                                               ; preds = %50, %49, %37, %30, %22
  call void @llvm.lifetime.end.p0(i64 8, ptr %8) #9
  call void @llvm.lifetime.end.p0(i64 80, ptr %7) #9
  call void @llvm.lifetime.end.p0(i64 4, ptr %6) #9
  br label %89

55:                                               ; preds = %2
  %56 = load ptr, ptr %4, align 8, !tbaa !3
  %57 = getelementptr inbounds nuw %struct.evp_cipher_ctx_st, ptr %56, i32 0, i32 0
  %58 = load ptr, ptr %57, align 8, !tbaa !8
  %59 = getelementptr inbounds nuw %struct.evp_cipher_st, ptr %58, i32 0, i32 4
  %60 = load i64, ptr %59, align 8, !tbaa !54
  %61 = and i64 %60, 128
  %62 = icmp ne i64 %61, 0
  br i1 %62, label %63, label %67

63:                                               ; preds = %55
  %64 = load ptr, ptr %4, align 8, !tbaa !3
  %65 = load i32, ptr %5, align 4, !tbaa !29
  %66 = call i32 @EVP_CIPHER_CTX_ctrl(ptr noundef %64, i32 noundef 1, i32 noundef %65, ptr noundef null)
  store i32 %66, ptr %3, align 4
  br label %89

67:                                               ; preds = %55
  %68 = load ptr, ptr %4, align 8, !tbaa !3
  %69 = call i32 @EVP_CIPHER_CTX_get_key_length(ptr noundef %68)
  %70 = load i32, ptr %5, align 4, !tbaa !29
  %71 = icmp eq i32 %69, %70
  br i1 %71, label %72, label %73

72:                                               ; preds = %67
  store i32 1, ptr %3, align 4
  br label %89

73:                                               ; preds = %67
  %74 = load i32, ptr %5, align 4, !tbaa !29
  %75 = icmp sgt i32 %74, 0
  br i1 %75, label %76, label %88

76:                                               ; preds = %73
  %77 = load ptr, ptr %4, align 8, !tbaa !3
  %78 = getelementptr inbounds nuw %struct.evp_cipher_ctx_st, ptr %77, i32 0, i32 0
  %79 = load ptr, ptr %78, align 8, !tbaa !8
  %80 = getelementptr inbounds nuw %struct.evp_cipher_st, ptr %79, i32 0, i32 4
  %81 = load i64, ptr %80, align 8, !tbaa !54
  %82 = and i64 %81, 8
  %83 = icmp ne i64 %82, 0
  br i1 %83, label %84, label %88

84:                                               ; preds = %76
  %85 = load i32, ptr %5, align 4, !tbaa !29
  %86 = load ptr, ptr %4, align 8, !tbaa !3
  %87 = getelementptr inbounds nuw %struct.evp_cipher_ctx_st, ptr %86, i32 0, i32 9
  store i32 %85, ptr %87, align 8, !tbaa !53
  store i32 1, ptr %3, align 4
  br label %89

88:                                               ; preds = %76, %73
  call void @ERR_new()
  call void @ERR_set_debug(ptr noundef @.str, i32 noundef 1394, ptr noundef @__func__.EVP_CIPHER_CTX_set_key_length)
  call void (i32, i32, ptr, ...) @ERR_set_error(i32 noundef 6, i32 noundef 130, ptr noundef null)
  store i32 0, ptr %3, align 4
  br label %89

89:                                               ; preds = %88, %84, %72, %63, %54
  %90 = load i32, ptr %3, align 4
  ret i32 %90
}