; Function Attrs: nounwind uwtable
define i32 @EVP_CIPHER_CTX_set_key_length(ptr noundef %0, i32 noundef %1) local_unnamed_addr #0 {
  %3 = alloca [2 x %struct.ossl_param_st], align 16
  %4 = alloca i64, align 8
  %5 = load ptr, ptr %0, align 8, !tbaa !3
  %6 = getelementptr inbounds nuw i8, ptr %5, i64 120
  %7 = load ptr, ptr %6, align 8, !tbaa !12
  %.not = icmp eq ptr %7, null
  br i1 %.not, label %35, label %8

8:                                                ; preds = %2
  call void @llvm.lifetime.start.p0(i64 80, ptr nonnull %3) #10
  call void @llvm.memset.p0.i64(ptr noundef nonnull align 16 dereferenceable(80) %3, i8 0, i64 80, i1 false)
  call void @llvm.lifetime.start.p0(i64 8, ptr nonnull %4) #10
  %9 = tail call i32 @EVP_CIPHER_CTX_get_key_length(ptr noundef nonnull %0) #10
  %10 = icmp eq i32 %9, %1
  br i1 %10, label %34, label %11

11:                                               ; preds = %8
  %12 = load ptr, ptr %0, align 8, !tbaa !3
  %.not.i = icmp eq ptr %12, null
  br i1 %.not.i, label %EVP_CIPHER_settable_ctx_params.exit, label %13

13:                                               ; preds = %11
  %14 = getelementptr inbounds nuw i8, ptr %12, i64 272
  %15 = load ptr, ptr %14, align 8, !tbaa !72
  %.not7.i = icmp eq ptr %15, null
  br i1 %.not7.i, label %EVP_CIPHER_settable_ctx_params.exit, label %16

16:                                               ; preds = %13
  %17 = tail call ptr @EVP_CIPHER_get0_provider(ptr noundef nonnull %12) #10
  %18 = tail call ptr @ossl_provider_ctx(ptr noundef %17) #10
  %19 = load ptr, ptr %14, align 8, !tbaa !72
  %20 = tail call ptr %19(ptr noundef null, ptr noundef %18) #10
  br label %EVP_CIPHER_settable_ctx_params.exit

EVP_CIPHER_settable_ctx_params.exit:              ; preds = %11, %13, %16
  %.0.i = phi ptr [ %20, %16 ], [ null, %13 ], [ null, %11 ]
  %21 = tail call ptr @OSSL_PARAM_locate_const(ptr noundef %.0.i, ptr noundef nonnull @.str.3) #10
  %22 = icmp eq ptr %21, null
  br i1 %22, label %23, label %24

23:                                               ; preds = %EVP_CIPHER_settable_ctx_params.exit
  tail call void @ERR_new() #10
  tail call void @ERR_set_debug(ptr noundef nonnull @.str, i32 noundef 1366, ptr noundef nonnull @__func__.EVP_CIPHER_CTX_set_key_length) #10
  tail call void (i32, i32, ptr, ...) @ERR_set_error(i32 noundef 6, i32 noundef 130, ptr noundef null) #10
  br label %34

24:                                               ; preds = %EVP_CIPHER_settable_ctx_params.exit
  call void @OSSL_PARAM_construct_size_t(ptr dead_on_unwind nonnull writable sret(%struct.ossl_param_st) align 8 %3, ptr noundef nonnull @.str.3, ptr noundef nonnull %4) #10
  %25 = call i32 @OSSL_PARAM_set_int(ptr noundef nonnull %3, i32 noundef %1) #10
  %.not23 = icmp eq i32 %25, 0
  br i1 %.not23, label %34, label %26

26:                                               ; preds = %24
  %27 = load ptr, ptr %0, align 8, !tbaa !3
  %28 = getelementptr inbounds nuw i8, ptr %0, i64 176
  %29 = load ptr, ptr %28, align 8, !tbaa !17
  %30 = call i32 @evp_do_ciph_ctx_setparams(ptr noundef %27, ptr noundef %29, ptr noundef nonnull %3) #10
  %31 = icmp slt i32 %30, 1
  br i1 %31, label %34, label %32

32:                                               ; preds = %26
  %33 = getelementptr inbounds nuw i8, ptr %0, i64 104
  store i32 %1, ptr %33, align 8, !tbaa !51
  br label %34

34:                                               ; preds = %26, %24, %8, %32, %23
  %.0 = phi i32 [ 0, %23 ], [ 1, %32 ], [ 1, %8 ], [ 0, %24 ], [ 0, %26 ]
  call void @llvm.lifetime.end.p0(i64 8, ptr nonnull %4) #10
  call void @llvm.lifetime.end.p0(i64 80, ptr nonnull %3) #10
  br label %54

35:                                               ; preds = %2
  %36 = getelementptr inbounds nuw i8, ptr %5, i64 16
  %37 = load i64, ptr %36, align 8, !tbaa !53
  %38 = and i64 %37, 128
  %.not21 = icmp eq i64 %38, 0
  br i1 %.not21, label %41, label %39

39:                                               ; preds = %35
  %40 = tail call i32 @EVP_CIPHER_CTX_ctrl(ptr noundef nonnull %0, i32 noundef 1, i32 noundef %1, ptr noundef null)
  br label %54

41:                                               ; preds = %35
  %42 = tail call i32 @EVP_CIPHER_CTX_get_key_length(ptr noundef nonnull %0) #10
  %43 = icmp eq i32 %42, %1
  br i1 %43, label %54, label %44

44:                                               ; preds = %41
  %45 = icmp sgt i32 %1, 0
  br i1 %45, label %46, label %53

46:                                               ; preds = %44
  %47 = load ptr, ptr %0, align 8, !tbaa !3
  %48 = getelementptr inbounds nuw i8, ptr %47, i64 16
  %49 = load i64, ptr %48, align 8, !tbaa !53
  %50 = and i64 %49, 8
  %.not22 = icmp eq i64 %50, 0
  br i1 %.not22, label %53, label %51

51:                                               ; preds = %46
  %52 = getelementptr inbounds nuw i8, ptr %0, i64 104
  store i32 %1, ptr %52, align 8, !tbaa !51
  br label %54

53:                                               ; preds = %46, %44
  tail call void @ERR_new() #10
  tail call void @ERR_set_debug(ptr noundef nonnull @.str, i32 noundef 1394, ptr noundef nonnull @__func__.EVP_CIPHER_CTX_set_key_length) #10
  tail call void (i32, i32, ptr, ...) @ERR_set_error(i32 noundef 6, i32 noundef 130, ptr noundef null) #10
  br label %54

54:                                               ; preds = %41, %53, %51, %39, %34
  %.1 = phi i32 [ %.0, %34 ], [ %40, %39 ], [ 1, %51 ], [ 0, %53 ], [ 1, %41 ]
  ret i32 %.1
}